target datalayout = "e-m:e-p270:32:32-p271:32:32-p272:64:64-i64:64-i128:128-f80:128-n8:16:32:64-S128"
target triple = "x86_64-pc-linux-gnu"

%struct.FunctionCallInfoBaseData = type { ptr, ptr, ptr, i32, i8, i16, [0 x %struct.NullableDatum] }
%struct.NullableDatum = type { i64, i8 }
%struct.List = type { i32, i32, i32, ptr, [0 x %union.ListCell] }
%union.ListCell = type { ptr }

; Function Attrs: inlinehint nounwind uwtable
define internal ptr @list_last_cell(ptr noundef %0) #2 {
  %2 = alloca ptr, align 8
  store ptr %0, ptr %2, align 8
  %3 = load ptr, ptr %2, align 8
  %4 = getelementptr inbounds nuw %struct.List, ptr %3, i32 0, i32 3
  %5 = load ptr, ptr %4, align 8
  %6 = load ptr, ptr %2, align 8
  %7 = getelementptr inbounds nuw %struct.List, ptr %6, i32 0, i32 1
  %8 = load i32, ptr %7, align 4
  %9 = sub i32 %8, 1
  %10 = sext i32 %9 to i64
  %11 = getelementptr inbounds %union.ListCell, ptr %5, i64 %10
  ret ptr %11
}

; Function Attrs: inlinehint nounwind uwtable
define internal i64 @ObjectIdGetDatum(i32 noundef %0) #2 {
  %2 = alloca i32, align 4
  store i32 %0, ptr %2, align 4
  %3 = load i32, ptr %2, align 4
  %4 = zext i32 %3 to i64
  ret i64 %4
}

; Function Attrs: nounwind uwtable
define internal zeroext i1 @check_rel_can_be_partition(i32 noundef %0) #0 {
  %2 = alloca i1, align 1
  %3 = alloca i32, align 4
  %4 = alloca i8, align 1
  %5 = alloca i8, align 1
  %6 = alloca i32, align 4
  store i32 %0, ptr %3, align 4
  call void @llvm.lifetime.start.p0(i64 1, ptr %4) #6
  call void @llvm.lifetime.start.p0(i64 1, ptr %5) #6
  %7 = load i32, ptr %3, align 4
  %8 = call i64 @ObjectIdGetDatum(i32 noundef %7)
  %9 = call zeroext i1 @SearchSysCacheExists(i32 noundef 57, i64 noundef %8, i64 noundef 0, i64 noundef 0, i64 noundef 0)
  br i1 %9, label %11, label %10

10:                                               ; preds = %1
  store i1 false, ptr %2, align 1
  store i32 1, ptr %6, align 4
  br label %29

11:                                               ; preds = %1
  %12 = load i32, ptr %3, align 4
  %13 = call signext i8 @get_rel_relkind(i32 noundef %12)
  store i8 %13, ptr %4, align 1
  %14 = load i32, ptr %3, align 4
  %15 = call zeroext i1 @get_rel_relispartition(i32 noundef %14)
  %16 = zext i1 %15 to i8
  store i8 %16, ptr %5, align 1
  %17 = load i8, ptr %5, align 1, !range !6, !noundef !7
  %18 = trunc i8 %17 to i1
  br i1 %18, label %28, label %19

19:                                               ; preds = %11
  %20 = load i8, ptr %4, align 1
  %21 = sext i8 %20 to i32
  %22 = icmp eq i32 %21, 112
  br i1 %22, label %28, label %23

23:                                               ; preds = %19
  %24 = load i8, ptr %4, align 1
  %25 = sext i8 %24 to i32
  %26 = icmp eq i32 %25, 73
  br i1 %26, label %28, label %27

27:                                               ; preds = %23
  store i1 false, ptr %2, align 1
  store i32 1, ptr %6, align 4
  br label %29

28:                                               ; preds = %23, %19, %11
  store i1 true, ptr %2, align 1
  store i32 1, ptr %6, align 4
  br label %29

29:                                               ; preds = %28, %27, %10
  call void @llvm.lifetime.end.p0(i64 1, ptr %5) #6
  call void @llvm.lifetime.end.p0(i64 1, ptr %4) #6
  %30 = load i1, ptr %2, align 1
  ret i1 %30
}

; Function Attrs: inlinehint nounwind uwtable
define internal i32 @DatumGetObjectId(i64 noundef %0) #2 {
  %2 = alloca i64, align 8
  store i64 %0, ptr %2, align 8
  %3 = load i64, ptr %2, align 8
  %4 = trunc i64 %3 to i32
  ret i32 %4
}

; Function Attrs: nounwind uwtable
define dso_local i64 @pg_partition_root(ptr noundef %0) #0 {
  %2 = alloca i64, align 8
  %3 = alloca ptr, align 8
  %4 = alloca i32, align 4
  %5 = alloca i32, align 4
  %6 = alloca ptr, align 8
  %7 = alloca i32, align 4
  store ptr %0, ptr %3, align 8
  call void @llvm.lifetime.start.p0(i64 4, ptr %4) #6
  %8 = load ptr, ptr %3, align 8
  %9 = getelementptr inbounds nuw %struct.FunctionCallInfoBaseData, ptr %8, i32 0, i32 6
  %10 = getelementptr inbounds [0 x %struct.NullableDatum], ptr %9, i64 0, i64 0
  %11 = getelementptr inbounds nuw %struct.NullableDatum, ptr %10, i32 0, i32 0
  %12 = load i64, ptr %11, align 8
  %13 = call i32 @DatumGetObjectId(i64 noundef %12)
  store i32 %13, ptr %4, align 4
  call void @llvm.lifetime.start.p0(i64 4, ptr %5) #6
  call void @llvm.lifetime.start.p0(i64 8, ptr %6) #6
  %14 = load i32, ptr %4, align 4
  %15 = call zeroext i1 @check_rel_can_be_partition(i32 noundef %14)
  br i1 %15, label %22, label %16

16:                                               ; preds = %1
  br label %17

17:                                               ; preds = %16
  %18 = load ptr, ptr %3, align 8
  %19 = getelementptr inbounds nuw %struct.FunctionCallInfoBaseData, ptr %18, i32 0, i32 4
  store i8 1, ptr %19, align 4
  store i64 0, ptr %2, align 8
  store i32 1, ptr %7, align 4
  br label %37

20:                                               ; No predecessors!
  br label %21

21:                                               ; preds = %20
  br label %22

22:                                               ; preds = %21, %1
  %23 = load i32, ptr %4, align 4
  %24 = call ptr @get_partition_ancestors(i32 noundef %23)
  store ptr %24, ptr %6, align 8
  %25 = load ptr, ptr %6, align 8
  %26 = icmp eq ptr %25, null
  br i1 %26, label %27, label %30

27:                                               ; preds = %22
  %28 = load i32, ptr %4, align 4
  %29 = call i64 @ObjectIdGetDatum(i32 noundef %28)
  store i64 %29, ptr %2, align 8
  store i32 1, ptr %7, align 4
  br label %37

30:                                               ; preds = %22
  %31 = load ptr, ptr %6, align 8
  %32 = call ptr @list_last_cell(ptr noundef %31)
  %33 = load i32, ptr %32, align 8
  store i32 %33, ptr %5, align 4
  %34 = load ptr, ptr %6, align 8
  call void @list_free(ptr noundef %34)
  %35 = load i32, ptr %5, align 4
  %36 = call i64 @ObjectIdGetDatum(i32 noundef %35)
  store i64 %36, ptr %2, align 8
  store i32 1, ptr %7, align 4
  br label %37

37:                                               ; preds = %30, %27, %17
  call void @llvm.lifetime.end.p0(i64 8, ptr %6) #6
  call void @llvm.lifetime.end.p0(i64 4, ptr %5) #6
  call void @llvm.lifetime.end.p0(i64 4, ptr %4) #6
  %38 = load i64, ptr %2, align 8
  ret i64 %38
}