; Function Attrs: nounwind uwtable
define dso_local range(i64 0, 4294967296) i64 @pg_partition_root(ptr noundef captures(none) %0) local_unnamed_addr #0 {
  %2 = getelementptr inbounds nuw i8, ptr %0, i64 32
  %3 = load i64, ptr %2, align 8
  %4 = trunc i64 %3 to i32
  %5 = and i64 %3, 4294967295
  %6 = tail call zeroext i1 @SearchSysCacheExists(i32 noundef 57, i64 noundef %5, i64 noundef 0, i64 noundef 0, i64 noundef 0) #6
  br i1 %6, label %7, label %check_rel_can_be_partition.exit.thread12

7:                                                ; preds = %1
  %8 = tail call signext i8 @get_rel_relkind(i32 noundef %4) #6
  %9 = tail call zeroext i1 @get_rel_relispartition(i32 noundef %4) #6
  %10 = freeze i1 %9
  br i1 %10, label %check_rel_can_be_partition.exit.thread, label %check_rel_can_be_partition.exit

check_rel_can_be_partition.exit:                  ; preds = %7
  switch i8 %8, label %check_rel_can_be_partition.exit.thread12 [
    i8 112, label %check_rel_can_be_partition.exit.thread
    i8 73, label %check_rel_can_be_partition.exit.thread
  ]

check_rel_can_be_partition.exit.thread12:         ; preds = %check_rel_can_be_partition.exit, %1
  %11 = getelementptr inbounds nuw i8, ptr %0, i64 28
  store i8 1, ptr %11, align 4
  br label %22

check_rel_can_be_partition.exit.thread:           ; preds = %check_rel_can_be_partition.exit, %check_rel_can_be_partition.exit, %7
  %12 = tail call ptr @get_partition_ancestors(i32 noundef %4) #6
  %13 = icmp eq ptr %12, null
  br i1 %13, label %22, label %14

14:                                               ; preds = %check_rel_can_be_partition.exit.thread
  %15 = getelementptr i8, ptr %12, i64 4
  %.val = load i32, ptr %15, align 4
  %16 = getelementptr i8, ptr %12, i64 16
  %.val10 = load ptr, ptr %16, align 8
  %17 = add i32 %.val, -1
  %18 = sext i32 %17 to i64
  %19 = getelementptr inbounds %union.ListCell, ptr %.val10, i64 %18
  %20 = load i32, ptr %19, align 8
  tail call void @list_free(ptr noundef nonnull %12) #6
  %21 = zext i32 %20 to i64
  br label %22

22:                                               ; preds = %check_rel_can_be_partition.exit.thread, %14, %check_rel_can_be_partition.exit.thread12
  %.0 = phi i64 [ %21, %14 ], [ 0, %check_rel_can_be_partition.exit.thread12 ], [ %5, %check_rel_can_be_partition.exit.thread ]
  ret i64 %.0
}